target datalayout = "e-m:e-p270:32:32-p271:32:32-p272:64:64-i64:64-i128:128-f80:128-n8:16:32:64-S128"
target triple = "x86_64-pc-linux-gnu"

%struct._zend_array = type { %struct._zend_refcounted_h, %union.anon.0, i32, %union.anon.1, i32, i32, i32, i32, i64, ptr }
%struct._zend_refcounted_h = type { i32, %union.anon }
%union.anon = type { i32 }
%union.anon.0 = type { i32 }
%union.anon.1 = type { ptr }
%struct._zend_op_array = type { i8, [3 x i8], i32, ptr, ptr, ptr, i32, i32, ptr, ptr, ptr, ptr, i32, ptr, i32, i32, i32, ptr, ptr, ptr, ptr, ptr, i32, i32, ptr, ptr, ptr, i32, i32, i32, i32, ptr, ptr, [6 x ptr] }
%struct._zend_accel_shared_globals = type { i64, i64, i64, i64, i64, i64, %struct._zend_accel_hash, i64, i64, i64, i64, i8, i8, i32, i8, i8, i8, ptr, ptr, [2 x i32], ptr, ptr, %struct._zend_string_table }
%struct._zend_accel_hash = type { ptr, ptr, i32, i32, i32 }
%struct._zend_string_table = type { i32, i32, ptr, ptr, ptr, ptr }
%struct._zend_persistent_script = type { %struct._zend_script, i64, i32, i64, i8, i8, i8, i32, i32, ptr, ptr, ptr, i64, %struct.zend_persistent_script_dynamic_members }
%struct._zend_script = type { ptr, %struct._zend_op_array, %struct._zend_array, %struct._zend_array }
%struct.zend_persistent_script_dynamic_members = type { i64, i64, i32, i64 }

@accel_shared_globals = hidden global ptr null, align 8

; Function Attrs: nounwind uwtable
define internal void @preload_restart() #0 {
  %1 = alloca ptr, align 8
  %2 = load ptr, ptr @accel_shared_globals, align 8, !tbaa !29
  %3 = getelementptr inbounds nuw %struct._zend_accel_shared_globals, ptr %2, i32 0, i32 6
  %4 = load ptr, ptr @accel_shared_globals, align 8, !tbaa !29
  %5 = getelementptr inbounds nuw %struct._zend_accel_shared_globals, ptr %4, i32 0, i32 17
  %6 = load ptr, ptr %5, align 8, !tbaa !268
  %7 = getelementptr inbounds nuw %struct._zend_persistent_script, ptr %6, i32 0, i32 0
  %8 = getelementptr inbounds nuw %struct._zend_script, ptr %7, i32 0, i32 0
  %9 = load ptr, ptr %8, align 8, !tbaa !153
  %10 = load ptr, ptr @accel_shared_globals, align 8, !tbaa !29
  %11 = getelementptr inbounds nuw %struct._zend_accel_shared_globals, ptr %10, i32 0, i32 17
  %12 = load ptr, ptr %11, align 8, !tbaa !268
  %13 = call ptr @zend_accel_hash_update(ptr noundef %3, ptr noundef %9, i1 noundef zeroext false, ptr noundef %12)
  %14 = load ptr, ptr @accel_shared_globals, align 8, !tbaa !29
  %15 = getelementptr inbounds nuw %struct._zend_accel_shared_globals, ptr %14, i32 0, i32 18
  %16 = load ptr, ptr %15, align 8, !tbaa !276
  %17 = icmp ne ptr %16, null
  br i1 %17, label %18, label %40

18:                                               ; preds = %0
  call void @llvm.lifetime.start.p0(i64 8, ptr %1) #19
  %19 = load ptr, ptr @accel_shared_globals, align 8, !tbaa !29
  %20 = getelementptr inbounds nuw %struct._zend_accel_shared_globals, ptr %19, i32 0, i32 18
  %21 = load ptr, ptr %20, align 8, !tbaa !276
  store ptr %21, ptr %1, align 8, !tbaa !277
  br label %22

22:                                               ; preds = %26, %18
  %23 = load ptr, ptr %1, align 8, !tbaa !277
  %24 = load ptr, ptr %23, align 8, !tbaa !136
  %25 = icmp ne ptr %24, null
  br i1 %25, label %26, label %39

26:                                               ; preds = %22
  %27 = load ptr, ptr @accel_shared_globals, align 8, !tbaa !29
  %28 = getelementptr inbounds nuw %struct._zend_accel_shared_globals, ptr %27, i32 0, i32 6
  %29 = load ptr, ptr %1, align 8, !tbaa !277
  %30 = load ptr, ptr %29, align 8, !tbaa !136
  %31 = getelementptr inbounds nuw %struct._zend_persistent_script, ptr %30, i32 0, i32 0
  %32 = getelementptr inbounds nuw %struct._zend_script, ptr %31, i32 0, i32 0
  %33 = load ptr, ptr %32, align 8, !tbaa !153
  %34 = load ptr, ptr %1, align 8, !tbaa !277
  %35 = load ptr, ptr %34, align 8, !tbaa !136
  %36 = call ptr @zend_accel_hash_update(ptr noundef %28, ptr noundef %33, i1 noundef zeroext false, ptr noundef %35)
  %37 = load ptr, ptr %1, align 8, !tbaa !277
  %38 = getelementptr inbounds nuw ptr, ptr %37, i32 1
  store ptr %38, ptr %1, align 8, !tbaa !277
  br label %22

39:                                               ; preds = %22
  call void @llvm.lifetime.end.p0(i64 8, ptr %1) #19
  br label %40

40:                                               ; preds = %39, %0
  ret void
}