; Function Attrs: nounwind uwtable
define internal fastcc void @preload_restart() unnamed_addr #0 {
  %1 = load ptr, ptr @accel_shared_globals, align 8, !tbaa !28
  %2 = getelementptr inbounds nuw i8, ptr %1, i64 48
  %3 = getelementptr inbounds nuw i8, ptr %1, i64 128
  %4 = load ptr, ptr %3, align 8, !tbaa !255
  %5 = load ptr, ptr %4, align 8, !tbaa !141
  %6 = tail call ptr @zend_accel_hash_update(ptr noundef nonnull %2, ptr noundef %5, i1 noundef zeroext false, ptr noundef nonnull %4) #26
  %7 = load ptr, ptr @accel_shared_globals, align 8, !tbaa !28
  %8 = getelementptr inbounds nuw i8, ptr %7, i64 136
  %9 = load ptr, ptr %8, align 8, !tbaa !262
  %.not = icmp eq ptr %9, null
  br i1 %.not, label %.loopexit, label %.preheader

.preheader:                                       ; preds = %0
  %10 = load ptr, ptr %9, align 8, !tbaa !263
  %.not67 = icmp eq ptr %10, null
  br i1 %.not67, label %.loopexit, label %.lr.ph

.lr.ph:                                           ; preds = %.preheader, %.lr.ph
  %11 = phi ptr [ %17, %.lr.ph ], [ %10, %.preheader ]
  %.08 = phi ptr [ %16, %.lr.ph ], [ %9, %.preheader ]
  %12 = load ptr, ptr @accel_shared_globals, align 8, !tbaa !28
  %13 = getelementptr inbounds nuw i8, ptr %12, i64 48
  %14 = load ptr, ptr %11, align 8, !tbaa !141
  %15 = tail call ptr @zend_accel_hash_update(ptr noundef nonnull %13, ptr noundef %14, i1 noundef zeroext false, ptr noundef nonnull %11) #26
  %16 = getelementptr inbounds nuw i8, ptr %.08, i64 8
  %17 = load ptr, ptr %16, align 8, !tbaa !263
  %.not6 = icmp eq ptr %17, null
  br i1 %.not6, label %.loopexit, label %.lr.ph

.loopexit:                                        ; preds = %.lr.ph, %.preheader, %0
  ret void
}